target datalayout = "e-m:e-p270:32:32-p271:32:32-p272:64:64-i64:64-i128:128-f80:128-n8:16:32:64-S128"
target triple = "x86_64-pc-linux-gnu"

%struct.H5FL_reg_head_t = type { i8, i32, i32, ptr, i64, ptr }
%struct.H5O_stab_t = type { i64, i64 }

@H5_H5O_stab_t_reg_free_list = internal global %struct.H5FL_reg_head_t { i8 0, i32 0, i32 0, ptr @.str.4, i64 16, ptr null }, align 8
@.str.1 = private unnamed_addr constant [101 x i8] c"generated/home/dtcxzyw/WorkSpace/Projects/compilers/llvm-opt-benchmark/bench/hdf5/hdf5/src/H5Ostab.c\00", align 1
@__func__.H5O__stab_decode = private unnamed_addr constant [17 x i8] c"H5O__stab_decode\00", align 1
@H5E_RESOURCE_g = external global i64, align 8
@H5E_NOSPACE_g = external global i64, align 8
@.str.2 = private unnamed_addr constant [25 x i8] c"memory allocation failed\00", align 1
@H5E_OHDR_g = external global i64, align 8
@H5E_OVERFLOW_g = external global i64, align 8
@.str.3 = private unnamed_addr constant [43 x i8] c"ran off end of input buffer while decoding\00", align 1

; Function Attrs: nounwind uwtable
define internal ptr @H5O__stab_decode(ptr noundef %0, ptr noundef %1, i32 noundef %2, ptr noundef %3, i64 noundef %4, ptr noundef %5) #0 {
  %7 = alloca ptr, align 8
  %8 = alloca ptr, align 8
  %9 = alloca i32, align 4
  %10 = alloca ptr, align 8
  %11 = alloca i64, align 8
  %12 = alloca ptr, align 8
  %13 = alloca ptr, align 8
  %14 = alloca ptr, align 8
  %15 = alloca ptr, align 8
  %16 = alloca i8, align 1
  store ptr %0, ptr %7, align 8
  store ptr %1, ptr %8, align 8
  store i32 %2, ptr %9, align 4
  store ptr %3, ptr %10, align 8
  store i64 %4, ptr %11, align 8
  store ptr %5, ptr %12, align 8
  store ptr null, ptr %13, align 8
  %17 = load ptr, ptr %12, align 8
  %18 = load i64, ptr %11, align 8
  %19 = getelementptr inbounds i8, ptr %17, i64 %18
  %20 = getelementptr inbounds i8, ptr %19, i64 -1
  store ptr %20, ptr %14, align 8
  store ptr null, ptr %15, align 8
  store i8 0, ptr %16, align 1
  %21 = call noalias ptr @H5FL_reg_calloc(ptr noundef @H5_H5O_stab_t_reg_free_list)
  store ptr %21, ptr %13, align 8
  %22 = icmp eq ptr null, %21
  br i1 %22, label %23, label %38

23:                                               ; preds = %6
  br label %24

24:                                               ; preds = %23
  br label %25

25:                                               ; preds = %24
  br label %26

26:                                               ; preds = %25
  %27 = load i64, ptr @H5E_RESOURCE_g, align 8
  %28 = load i64, ptr @H5E_NOSPACE_g, align 8
  %29 = call i32 (ptr, ptr, i32, i64, i64, ptr, ...) @H5E_printf_stack(ptr noundef @.str.1, ptr noundef @__func__.H5O__stab_decode, i32 noundef 98, i64 noundef %27, i64 noundef %28, ptr noundef @.str.2)
  br label %30

30:                                               ; preds = %26
  store i8 1, ptr %16, align 1
  %31 = load i8, ptr %16, align 1
  %32 = trunc i8 %31 to i1
  %33 = zext i1 %32 to i8
  store i8 %33, ptr %16, align 1
  br label %34

34:                                               ; preds = %30
  br label %35

35:                                               ; preds = %34
  store ptr null, ptr %15, align 8
  br label %136

36:                                               ; No predecessors!
  br label %37

37:                                               ; preds = %36
  br label %38

38:                                               ; preds = %37, %6
  %39 = load ptr, ptr %7, align 8
  %40 = call zeroext i8 @H5F_sizeof_addr(ptr noundef %39)
  %41 = zext i8 %40 to i32
  %42 = icmp ne i32 %41, 0
  br i1 %42, label %43, label %83

43:                                               ; preds = %38
  %44 = load ptr, ptr %12, align 8
  %45 = load ptr, ptr %14, align 8
  %46 = icmp ugt ptr %44, %45
  br i1 %46, label %68, label %47

47:                                               ; preds = %43
  %48 = load ptr, ptr %7, align 8
  %49 = call zeroext i8 @H5F_sizeof_addr(ptr noundef %48)
  %50 = zext i8 %49 to i64
  %51 = icmp ule i64 %50, 9223372036854775807
  br i1 %51, label %52, label %57

52:                                               ; preds = %47
  %53 = load ptr, ptr %7, align 8
  %54 = call zeroext i8 @H5F_sizeof_addr(ptr noundef %53)
  %55 = zext i8 %54 to i64
  %56 = icmp slt i64 %55, 0
  br i1 %56, label %68, label %57

57:                                               ; preds = %52, %47
  %58 = load ptr, ptr %7, align 8
  %59 = call zeroext i8 @H5F_sizeof_addr(ptr noundef %58)
  %60 = zext i8 %59 to i64
  %61 = load ptr, ptr %14, align 8
  %62 = load ptr, ptr %12, align 8
  %63 = ptrtoint ptr %61 to i64
  %64 = ptrtoint ptr %62 to i64
  %65 = sub i64 %63, %64
  %66 = add nsw i64 %65, 1
  %67 = icmp ugt i64 %60, %66
  br i1 %67, label %68, label %83

68:                                               ; preds = %57, %52, %43
  br label %69

69:                                               ; preds = %68
  br label %70

70:                                               ; preds = %69
  br label %71

71:                                               ; preds = %70
  %72 = load i64, ptr @H5E_OHDR_g, align 8
  %73 = load i64, ptr @H5E_OVERFLOW_g, align 8
  %74 = call i32 (ptr, ptr, i32, i64, i64, ptr, ...) @H5E_printf_stack(ptr noundef @.str.1, ptr noundef @__func__.H5O__stab_decode, i32 noundef 101, i64 noundef %72, i64 noundef %73, ptr noundef @.str.3)
  br label %75

75:                                               ; preds = %71
  store i8 1, ptr %16, align 1
  %76 = load i8, ptr %16, align 1
  %77 = trunc i8 %76 to i1
  %78 = zext i1 %77 to i8
  store i8 %78, ptr %16, align 1
  br label %79

79:                                               ; preds = %75
  br label %80

80:                                               ; preds = %79
  store ptr null, ptr %15, align 8
  br label %136

81:                                               ; No predecessors!
  br label %82

82:                                               ; preds = %81
  br label %83

83:                                               ; preds = %82, %57, %38
  %84 = load ptr, ptr %7, align 8
  %85 = load ptr, ptr %13, align 8
  %86 = getelementptr inbounds %struct.H5O_stab_t, ptr %85, i32 0, i32 0
  call void @H5F_addr_decode(ptr noundef %84, ptr noundef %12, ptr noundef %86)
  %87 = load ptr, ptr %7, align 8
  %88 = call zeroext i8 @H5F_sizeof_addr(ptr noundef %87)
  %89 = zext i8 %88 to i32
  %90 = icmp ne i32 %89, 0
  br i1 %90, label %91, label %131

91:                                               ; preds = %83
  %92 = load ptr, ptr %12, align 8
  %93 = load ptr, ptr %14, align 8
  %94 = icmp ugt ptr %92, %93
  br i1 %94, label %116, label %95

95:                                               ; preds = %91
  %96 = load ptr, ptr %7, align 8
  %97 = call zeroext i8 @H5F_sizeof_addr(ptr noundef %96)
  %98 = zext i8 %97 to i64
  %99 = icmp ule i64 %98, 9223372036854775807
  br i1 %99, label %100, label %105

100:                                              ; preds = %95
  %101 = load ptr, ptr %7, align 8
  %102 = call zeroext i8 @H5F_sizeof_addr(ptr noundef %101)
  %103 = zext i8 %102 to i64
  %104 = icmp slt i64 %103, 0
  br i1 %104, label %116, label %105

105:                                              ; preds = %100, %95
  %106 = load ptr, ptr %7, align 8
  %107 = call zeroext i8 @H5F_sizeof_addr(ptr noundef %106)
  %108 = zext i8 %107 to i64
  %109 = load ptr, ptr %14, align 8
  %110 = load ptr, ptr %12, align 8
  %111 = ptrtoint ptr %109 to i64
  %112 = ptrtoint ptr %110 to i64
  %113 = sub i64 %111, %112
  %114 = add nsw i64 %113, 1
  %115 = icmp ugt i64 %108, %114
  br i1 %115, label %116, label %131

116:                                              ; preds = %105, %100, %91
  br label %117

117:                                              ; preds = %116
  br label %118

118:                                              ; preds = %117
  br label %119

119:                                              ; preds = %118
  %120 = load i64, ptr @H5E_OHDR_g, align 8
  %121 = load i64, ptr @H5E_OVERFLOW_g, align 8
  %122 = call i32 (ptr, ptr, i32, i64, i64, ptr, ...) @H5E_printf_stack(ptr noundef @.str.1, ptr noundef @__func__.H5O__stab_decode, i32 noundef 105, i64 noundef %120, i64 noundef %121, ptr noundef @.str.3)
  br label %123

123:                                              ; preds = %119
  store i8 1, ptr %16, align 1
  %124 = load i8, ptr %16, align 1
  %125 = trunc i8 %124 to i1
  %126 = zext i1 %125 to i8
  store i8 %126, ptr %16, align 1
  br label %127

127:                                              ; preds = %123
  br label %128

128:                                              ; preds = %127
  store ptr null, ptr %15, align 8
  br label %136

129:                                              ; No predecessors!
  br label %130

130:                                              ; preds = %129
  br label %131

131:                                              ; preds = %130, %105, %83
  %132 = load ptr, ptr %7, align 8
  %133 = load ptr, ptr %13, align 8
  %134 = getelementptr inbounds %struct.H5O_stab_t, ptr %133, i32 0, i32 1
  call void @H5F_addr_decode(ptr noundef %132, ptr noundef %12, ptr noundef %134)
  %135 = load ptr, ptr %13, align 8
  store ptr %135, ptr %15, align 8
  br label %136

136:                                              ; preds = %131, %128, %80, %35
  %137 = load ptr, ptr %15, align 8
  %138 = icmp ne ptr %137, null
  br i1 %138, label %145, label %139

139:                                              ; preds = %136
  %140 = load ptr, ptr %13, align 8
  %141 = icmp ne ptr %140, null
  br i1 %141, label %142, label %145

142:                                              ; preds = %139
  %143 = load ptr, ptr %13, align 8
  %144 = call ptr @H5FL_reg_free(ptr noundef @H5_H5O_stab_t_reg_free_list, ptr noundef %143)
  br label %145

145:                                              ; preds = %142, %139, %136
  %146 = load ptr, ptr %15, align 8
  ret ptr %146
}