; Function Attrs: nounwind uwtable
define internal ptr @H5O__stab_decode(ptr noundef %0, ptr nocapture readnone %1, i32 %2, ptr nocapture readnone %3, i64 noundef %4, ptr noundef %5) #0 {
  %7 = alloca ptr, align 8
  store ptr %5, ptr %7, align 8
  %8 = getelementptr inbounds i8, ptr %5, i64 %4
  %9 = getelementptr inbounds i8, ptr %8, i64 -1
  %10 = tail call noalias ptr @H5FL_reg_calloc(ptr noundef nonnull @H5_H5O_stab_t_reg_free_list) #5
  %11 = icmp eq ptr %10, null
  br i1 %11, label %12, label %16

12:                                               ; preds = %6
  %13 = load i64, ptr @H5E_RESOURCE_g, align 8
  %14 = load i64, ptr @H5E_NOSPACE_g, align 8
  %15 = tail call i32 (ptr, ptr, i32, i64, i64, ptr, ...) @H5E_printf_stack(ptr noundef nonnull @.str.1, ptr noundef nonnull @__func__.H5O__stab_decode, i32 noundef 98, i64 noundef %13, i64 noundef %14, ptr noundef nonnull @.str.2) #5
  br label %.thread

16:                                               ; preds = %6
  %17 = tail call zeroext i8 @H5F_sizeof_addr(ptr noundef %0) #5
  %.not = icmp eq i8 %17, 0
  br i1 %.not, label %34, label %18

18:                                               ; preds = %16
  %19 = icmp ult ptr %9, %5
  br i1 %19, label %30, label %20

20:                                               ; preds = %18
  %21 = tail call zeroext i8 @H5F_sizeof_addr(ptr noundef %0) #5
  %22 = tail call zeroext i8 @H5F_sizeof_addr(ptr noundef %0) #5
  %23 = tail call zeroext i8 @H5F_sizeof_addr(ptr noundef %0) #5
  %24 = zext i8 %23 to i64
  %25 = ptrtoint ptr %9 to i64
  %26 = ptrtoint ptr %5 to i64
  %27 = add i64 %25, 1
  %28 = sub i64 %27, %26
  %29 = icmp ult i64 %28, %24
  br i1 %29, label %30, label %34

30:                                               ; preds = %18, %20
  %31 = load i64, ptr @H5E_OHDR_g, align 8
  %32 = load i64, ptr @H5E_OVERFLOW_g, align 8
  %33 = tail call i32 (ptr, ptr, i32, i64, i64, ptr, ...) @H5E_printf_stack(ptr noundef nonnull @.str.1, ptr noundef nonnull @__func__.H5O__stab_decode, i32 noundef 101, i64 noundef %31, i64 noundef %32, ptr noundef nonnull @.str.3) #5
  br label %56

34:                                               ; preds = %20, %16
  call void @H5F_addr_decode(ptr noundef %0, ptr noundef nonnull %7, ptr noundef nonnull %10) #5
  %35 = call zeroext i8 @H5F_sizeof_addr(ptr noundef %0) #5
  %.not28 = icmp eq i8 %35, 0
  br i1 %.not28, label %54, label %36

36:                                               ; preds = %34
  %37 = load ptr, ptr %7, align 8
  %38 = icmp ugt ptr %37, %9
  br i1 %38, label %50, label %39

39:                                               ; preds = %36
  %40 = call zeroext i8 @H5F_sizeof_addr(ptr noundef %0) #5
  %41 = call zeroext i8 @H5F_sizeof_addr(ptr noundef %0) #5
  %42 = call zeroext i8 @H5F_sizeof_addr(ptr noundef %0) #5
  %43 = zext i8 %42 to i64
  %44 = load ptr, ptr %7, align 8
  %45 = ptrtoint ptr %9 to i64
  %46 = ptrtoint ptr %44 to i64
  %47 = add i64 %45, 1
  %48 = sub i64 %47, %46
  %49 = icmp ult i64 %48, %43
  br i1 %49, label %50, label %54

50:                                               ; preds = %36, %39
  %51 = load i64, ptr @H5E_OHDR_g, align 8
  %52 = load i64, ptr @H5E_OVERFLOW_g, align 8
  %53 = call i32 (ptr, ptr, i32, i64, i64, ptr, ...) @H5E_printf_stack(ptr noundef nonnull @.str.1, ptr noundef nonnull @__func__.H5O__stab_decode, i32 noundef 105, i64 noundef %51, i64 noundef %52, ptr noundef nonnull @.str.3) #5
  br label %56

54:                                               ; preds = %39, %34
  %55 = getelementptr inbounds i8, ptr %10, i64 8
  call void @H5F_addr_decode(ptr noundef %0, ptr noundef nonnull %7, ptr noundef nonnull %55) #5
  br label %.thread

56:                                               ; preds = %30, %50
  %57 = call ptr @H5FL_reg_free(ptr noundef nonnull @H5_H5O_stab_t_reg_free_list, ptr noundef nonnull %10) #5
  br label %.thread

.thread:                                          ; preds = %12, %54, %56
  %.031 = phi ptr [ null, %56 ], [ %10, %54 ], [ null, %12 ]
  ret ptr %.031
}